
key.elf:     file format elf32-littlearm


Disassembly of section .text:

50000000 <_start>:
50000000:	e3a00207 	mov	r0, #1879048192	; 0x70000000
50000004:	e3800013 	orr	r0, r0, #19
50000008:	ee0f0f92 	mcr	15, 0, r0, cr15, cr2, {4}
5000000c:	e59f0018 	ldr	r0, [pc, #24]	; 5000002c <halt+0x4>
50000010:	e3a01000 	mov	r1, #0
50000014:	e5801000 	str	r1, [r0]
50000018:	e59fd010 	ldr	sp, [pc, #16]	; 50000030 <halt+0x8>
5000001c:	e3800a01 	orr	r0, r0, #4096	; 0x1000
50000020:	ee010f10 	mcr	15, 0, r0, cr1, cr0, {0}
50000024:	eb000002 	bl	50000034 <main>

50000028 <halt>:
50000028:	eafffffe 	b	50000028 <halt>
5000002c:	7e004000 	cdpvc	0, 0, cr4, cr0, cr0, {0}
50000030:	0c002000 	stceq	0, cr2, [r0], {0}

50000034 <main>:
50000034:	e52db004 	push	{fp}		; (str fp, [sp, #-4]!)
50000038:	e28db000 	add	fp, sp, #0
5000003c:	e24dd00c 	sub	sp, sp, #12
50000040:	e3a03000 	mov	r3, #0
50000044:	e50b3008 	str	r3, [fp, #-8]
50000048:	e59f3120 	ldr	r3, [pc, #288]	; 50000170 <main+0x13c>
5000004c:	e59f2120 	ldr	r2, [pc, #288]	; 50000174 <main+0x140>
50000050:	e5832000 	str	r2, [r3]
50000054:	e59f311c 	ldr	r3, [pc, #284]	; 50000178 <main+0x144>
50000058:	e3a020f0 	mov	r2, #240	; 0xf0
5000005c:	e5832000 	str	r2, [r3]
50000060:	e59f3114 	ldr	r3, [pc, #276]	; 5000017c <main+0x148>
50000064:	e3a02000 	mov	r2, #0
50000068:	e5832000 	str	r2, [r3]
5000006c:	e59f310c 	ldr	r3, [pc, #268]	; 50000180 <main+0x14c>
50000070:	e5933000 	ldr	r3, [r3]
50000074:	e50b3008 	str	r3, [fp, #-8]
50000078:	e51b3008 	ldr	r3, [fp, #-8]
5000007c:	e2033001 	and	r3, r3, #1
50000080:	e6ef3073 	uxtb	r3, r3
50000084:	e3530000 	cmp	r3, #0
50000088:	0a000005 	beq	500000a4 <main+0x70>
5000008c:	e59f30e4 	ldr	r3, [pc, #228]	; 50000178 <main+0x144>
50000090:	e59f20e0 	ldr	r2, [pc, #224]	; 50000178 <main+0x144>
50000094:	e5922000 	ldr	r2, [r2]
50000098:	e3822010 	orr	r2, r2, #16
5000009c:	e5832000 	str	r2, [r3]
500000a0:	ea000004 	b	500000b8 <main+0x84>
500000a4:	e59f30cc 	ldr	r3, [pc, #204]	; 50000178 <main+0x144>
500000a8:	e59f20c8 	ldr	r2, [pc, #200]	; 50000178 <main+0x144>
500000ac:	e5922000 	ldr	r2, [r2]
500000b0:	e3c22010 	bic	r2, r2, #16
500000b4:	e5832000 	str	r2, [r3]
500000b8:	e51b3008 	ldr	r3, [fp, #-8]
500000bc:	e2033002 	and	r3, r3, #2
500000c0:	e3530000 	cmp	r3, #0
500000c4:	0a000005 	beq	500000e0 <main+0xac>
500000c8:	e59f30a8 	ldr	r3, [pc, #168]	; 50000178 <main+0x144>
500000cc:	e59f20a4 	ldr	r2, [pc, #164]	; 50000178 <main+0x144>
500000d0:	e5922000 	ldr	r2, [r2]
500000d4:	e3822020 	orr	r2, r2, #32
500000d8:	e5832000 	str	r2, [r3]
500000dc:	ea000004 	b	500000f4 <main+0xc0>
500000e0:	e59f3090 	ldr	r3, [pc, #144]	; 50000178 <main+0x144>
500000e4:	e59f208c 	ldr	r2, [pc, #140]	; 50000178 <main+0x144>
500000e8:	e5922000 	ldr	r2, [r2]
500000ec:	e3c22020 	bic	r2, r2, #32
500000f0:	e5832000 	str	r2, [r3]
500000f4:	e51b3008 	ldr	r3, [fp, #-8]
500000f8:	e2033004 	and	r3, r3, #4
500000fc:	e3530000 	cmp	r3, #0
50000100:	0a000005 	beq	5000011c <main+0xe8>
50000104:	e59f306c 	ldr	r3, [pc, #108]	; 50000178 <main+0x144>
50000108:	e59f2068 	ldr	r2, [pc, #104]	; 50000178 <main+0x144>
5000010c:	e5922000 	ldr	r2, [r2]
50000110:	e3822040 	orr	r2, r2, #64	; 0x40
50000114:	e5832000 	str	r2, [r3]
50000118:	ea000004 	b	50000130 <main+0xfc>
5000011c:	e59f3054 	ldr	r3, [pc, #84]	; 50000178 <main+0x144>
50000120:	e59f2050 	ldr	r2, [pc, #80]	; 50000178 <main+0x144>
50000124:	e5922000 	ldr	r2, [r2]
50000128:	e3c22040 	bic	r2, r2, #64	; 0x40
5000012c:	e5832000 	str	r2, [r3]
50000130:	e51b3008 	ldr	r3, [fp, #-8]
50000134:	e2033008 	and	r3, r3, #8
50000138:	e3530000 	cmp	r3, #0
5000013c:	0a000005 	beq	50000158 <main+0x124>
50000140:	e59f3030 	ldr	r3, [pc, #48]	; 50000178 <main+0x144>
50000144:	e59f202c 	ldr	r2, [pc, #44]	; 50000178 <main+0x144>
50000148:	e5922000 	ldr	r2, [r2]
5000014c:	e3822080 	orr	r2, r2, #128	; 0x80
50000150:	e5832000 	str	r2, [r3]
50000154:	eaffffc4 	b	5000006c <main+0x38>
50000158:	e59f3018 	ldr	r3, [pc, #24]	; 50000178 <main+0x144>
5000015c:	e59f2014 	ldr	r2, [pc, #20]	; 50000178 <main+0x144>
50000160:	e5922000 	ldr	r2, [r2]
50000164:	e3c22080 	bic	r2, r2, #128	; 0x80
50000168:	e5832000 	str	r2, [r3]
5000016c:	eaffffbe 	b	5000006c <main+0x38>
50000170:	7f008800 	svcvc	0x00008800
50000174:	11110000 	tstne	r1, r0
50000178:	7f008808 	svcvc	0x00008808
5000017c:	7f008830 	svcvc	0x00008830
50000180:	7f008834 	svcvc	0x00008834

Disassembly of section .ARM.attributes:

00000000 <.ARM.attributes>:
   0:	00003341 	andeq	r3, r0, r1, asr #6
   4:	61656100 	cmnvs	r5, r0, lsl #2
   8:	01006962 	tsteq	r0, r2, ror #18
   c:	00000029 	andeq	r0, r0, r9, lsr #32
  10:	4d524105 	ldfmie	f4, [r2, #-20]	; 0xffffffec
  14:	36373131 	undefined instruction 0x36373131
  18:	2d465a4a 	vstrcs	s11, [r6, #-296]	; 0xfffffed8
  1c:	09060053 	stmdbeq	r6, {r0, r1, r4, r6}
  20:	01090108 	tsteq	r9, r8, lsl #2
  24:	0412020a 	ldreq	r0, [r2], #-522	; 0x20a
  28:	01150114 	tsteq	r5, r4, lsl r1
  2c:	01180317 	tsteq	r8, r7, lsl r3
  30:	031b021a 	tsteq	fp, #-1610612735	; 0xa0000001

Disassembly of section .comment:

00000000 <.comment>:
   0:	3a434347 	bcc	10d0d24 <_start-0x4ef2f2dc>
   4:	74632820 	strbtvc	r2, [r3], #-2080	; 0x820
   8:	312d676e 	teqcc	sp, lr, ror #14
   c:	312e382e 	teqcc	lr, lr, lsr #16
  10:	2941462d 	stmdbcs	r1, {r0, r2, r3, r5, r9, sl, lr}^
  14:	352e3420 	strcc	r3, [lr, #-1056]!	; 0x420
  18:	Address 0x00000018 is out of bounds.

